target datalayout = "e-m:e-p270:32:32-p271:32:32-p272:64:64-i64:64-i128:128-f80:128-n8:16:32:64-S128"
target triple = "x86_64-unknown-linux-gnu"

%class.btVector3 = type { [4 x float] }
%struct.btDbvt = type { ptr, ptr, i32, i32, i32, [4 x i8], %class.btAlignedObjectArray }
%class.btAlignedObjectArray = type <{ %class.btAlignedAllocator, [3 x i8], i32, i32, [4 x i8], ptr, i8, [7 x i8] }>
%class.btAlignedAllocator = type { i8 }
%struct.btDbvtNode = type { %struct.btDbvtAabbMm, ptr, %union.anon.4 }
%struct.btDbvtAabbMm = type { %class.btVector3, %class.btVector3 }
%union.anon.4 = type { [2 x ptr] }

; Function Attrs: mustprogress nounwind uwtable
define linkonce_odr dso_local noundef nonnull align 4 dereferenceable(16) ptr @_ZN9btVector3pLERKS_(ptr noundef nonnull align 4 dereferenceable(16) %this, ptr noundef nonnull align 4 dereferenceable(16) %v) #1 comdat align 2 {
entry:
  %this.addr = alloca ptr, align 8
  %v.addr = alloca ptr, align 8
  store ptr %this, ptr %this.addr, align 8
  store ptr %v, ptr %v.addr, align 8
  %this1 = load ptr, ptr %this.addr, align 8
  %0 = load ptr, ptr %v.addr, align 8
  %m_floats = getelementptr inbounds %class.btVector3, ptr %0, i32 0, i32 0
  %arrayidx = getelementptr inbounds [4 x float], ptr %m_floats, i64 0, i64 0
  %1 = load float, ptr %arrayidx, align 4
  %m_floats2 = getelementptr inbounds %class.btVector3, ptr %this1, i32 0, i32 0
  %arrayidx3 = getelementptr inbounds [4 x float], ptr %m_floats2, i64 0, i64 0
  %2 = load float, ptr %arrayidx3, align 4
  %add = fadd float %2, %1
  store float %add, ptr %arrayidx3, align 4
  %3 = load ptr, ptr %v.addr, align 8
  %m_floats4 = getelementptr inbounds %class.btVector3, ptr %3, i32 0, i32 0
  %arrayidx5 = getelementptr inbounds [4 x float], ptr %m_floats4, i64 0, i64 1
  %4 = load float, ptr %arrayidx5, align 4
  %m_floats6 = getelementptr inbounds %class.btVector3, ptr %this1, i32 0, i32 0
  %arrayidx7 = getelementptr inbounds [4 x float], ptr %m_floats6, i64 0, i64 1
  %5 = load float, ptr %arrayidx7, align 4
  %add8 = fadd float %5, %4
  store float %add8, ptr %arrayidx7, align 4
  %6 = load ptr, ptr %v.addr, align 8
  %m_floats9 = getelementptr inbounds %class.btVector3, ptr %6, i32 0, i32 0
  %arrayidx10 = getelementptr inbounds [4 x float], ptr %m_floats9, i64 0, i64 2
  %7 = load float, ptr %arrayidx10, align 4
  %m_floats11 = getelementptr inbounds %class.btVector3, ptr %this1, i32 0, i32 0
  %arrayidx12 = getelementptr inbounds [4 x float], ptr %m_floats11, i64 0, i64 2
  %8 = load float, ptr %arrayidx12, align 4
  %add13 = fadd float %8, %7
  store float %add13, ptr %arrayidx12, align 4
  ret ptr %this1
}

; Function Attrs: mustprogress nounwind uwtable
define linkonce_odr dso_local noundef nonnull align 4 dereferenceable(16) ptr @_ZN9btVector3mIERKS_(ptr noundef nonnull align 4 dereferenceable(16) %this, ptr noundef nonnull align 4 dereferenceable(16) %v) #1 comdat align 2 {
entry:
  %this.addr = alloca ptr, align 8
  %v.addr = alloca ptr, align 8
  store ptr %this, ptr %this.addr, align 8
  store ptr %v, ptr %v.addr, align 8
  %this1 = load ptr, ptr %this.addr, align 8
  %0 = load ptr, ptr %v.addr, align 8
  %m_floats = getelementptr inbounds %class.btVector3, ptr %0, i32 0, i32 0
  %arrayidx = getelementptr inbounds [4 x float], ptr %m_floats, i64 0, i64 0
  %1 = load float, ptr %arrayidx, align 4
  %m_floats2 = getelementptr inbounds %class.btVector3, ptr %this1, i32 0, i32 0
  %arrayidx3 = getelementptr inbounds [4 x float], ptr %m_floats2, i64 0, i64 0
  %2 = load float, ptr %arrayidx3, align 4
  %sub = fsub float %2, %1
  store float %sub, ptr %arrayidx3, align 4
  %3 = load ptr, ptr %v.addr, align 8
  %m_floats4 = getelementptr inbounds %class.btVector3, ptr %3, i32 0, i32 0
  %arrayidx5 = getelementptr inbounds [4 x float], ptr %m_floats4, i64 0, i64 1
  %4 = load float, ptr %arrayidx5, align 4
  %m_floats6 = getelementptr inbounds %class.btVector3, ptr %this1, i32 0, i32 0
  %arrayidx7 = getelementptr inbounds [4 x float], ptr %m_floats6, i64 0, i64 1
  %5 = load float, ptr %arrayidx7, align 4
  %sub8 = fsub float %5, %4
  store float %sub8, ptr %arrayidx7, align 4
  %6 = load ptr, ptr %v.addr, align 8
  %m_floats9 = getelementptr inbounds %class.btVector3, ptr %6, i32 0, i32 0
  %arrayidx10 = getelementptr inbounds [4 x float], ptr %m_floats9, i64 0, i64 2
  %7 = load float, ptr %arrayidx10, align 4
  %m_floats11 = getelementptr inbounds %class.btVector3, ptr %this1, i32 0, i32 0
  %arrayidx12 = getelementptr inbounds [4 x float], ptr %m_floats11, i64 0, i64 2
  %8 = load float, ptr %arrayidx12, align 4
  %sub13 = fsub float %8, %7
  store float %sub13, ptr %arrayidx12, align 4
  ret ptr %this1
}

; Function Attrs: mustprogress nounwind uwtable
define linkonce_odr dso_local noundef nonnull align 4 dereferenceable(4) ptr @_ZNK9btVector31zEv(ptr noundef nonnull align 4 dereferenceable(16) %this) #1 comdat align 2 {
entry:
  %this.addr = alloca ptr, align 8
  store ptr %this, ptr %this.addr, align 8
  %this1 = load ptr, ptr %this.addr, align 8
  %m_floats = getelementptr inbounds %class.btVector3, ptr %this1, i32 0, i32 0
  %arrayidx = getelementptr inbounds [4 x float], ptr %m_floats, i64 0, i64 2
  ret ptr %arrayidx
}

; Function Attrs: mustprogress nounwind uwtable
define linkonce_odr dso_local noundef nonnull align 4 dereferenceable(4) ptr @_ZNK9btVector31yEv(ptr noundef nonnull align 4 dereferenceable(16) %this) #1 comdat align 2 {
entry:
  %this.addr = alloca ptr, align 8
  store ptr %this, ptr %this.addr, align 8
  %this1 = load ptr, ptr %this.addr, align 8
  %m_floats = getelementptr inbounds %class.btVector3, ptr %this1, i32 0, i32 0
  %arrayidx = getelementptr inbounds [4 x float], ptr %m_floats, i64 0, i64 1
  ret ptr %arrayidx
}

; Function Attrs: mustprogress nounwind uwtable
define linkonce_odr dso_local noundef nonnull align 4 dereferenceable(4) ptr @_ZNK9btVector31xEv(ptr noundef nonnull align 4 dereferenceable(16) %this) #1 comdat align 2 {
entry:
  %this.addr = alloca ptr, align 8
  store ptr %this, ptr %this.addr, align 8
  %this1 = load ptr, ptr %this.addr, align 8
  %m_floats = getelementptr inbounds %class.btVector3, ptr %this1, i32 0, i32 0
  %arrayidx = getelementptr inbounds [4 x float], ptr %m_floats, i64 0, i64 0
  ret ptr %arrayidx
}

; Function Attrs: mustprogress uwtable
define dso_local void @_ZN6btDbvt6updateEP10btDbvtNodeR12btDbvtAabbMm(ptr noundef nonnull align 8 dereferenceable(64) %this, ptr noundef %leaf, ptr noundef nonnull align 4 dereferenceable(32) %volume) #2 align 2 {
entry:
  %this.addr = alloca ptr, align 8
  %leaf.addr = alloca ptr, align 8
  %volume.addr = alloca ptr, align 8
  %root = alloca ptr, align 8
  %i = alloca i32, align 4
  store ptr %this, ptr %this.addr, align 8
  store ptr %leaf, ptr %leaf.addr, align 8
  store ptr %volume, ptr %volume.addr, align 8
  %this1 = load ptr, ptr %this.addr, align 8
  %0 = load ptr, ptr %leaf.addr, align 8
  %call = call noundef ptr @_ZL10removeleafP6btDbvtP10btDbvtNode(ptr noundef %this1, ptr noundef %0)
  store ptr %call, ptr %root, align 8
  %1 = load ptr, ptr %root, align 8
  %tobool = icmp ne ptr %1, null
  br i1 %tobool, label %if.then, label %if.end7

if.then:                                          ; preds = %entry
  %m_lkhd = getelementptr inbounds %struct.btDbvt, ptr %this1, i32 0, i32 2
  %2 = load i32, ptr %m_lkhd, align 8
  %cmp = icmp sge i32 %2, 0
  br i1 %cmp, label %if.then2, label %if.else

if.then2:                                         ; preds = %if.then
  store i32 0, ptr %i, align 4
  br label %for.cond

for.cond:                                         ; preds = %for.inc, %if.then2
  %3 = load i32, ptr %i, align 4
  %m_lkhd3 = getelementptr inbounds %struct.btDbvt, ptr %this1, i32 0, i32 2
  %4 = load i32, ptr %m_lkhd3, align 8
  %cmp4 = icmp slt i32 %3, %4
  br i1 %cmp4, label %land.rhs, label %land.end

land.rhs:                                         ; preds = %for.cond
  %5 = load ptr, ptr %root, align 8
  %parent = getelementptr inbounds %struct.btDbvtNode, ptr %5, i32 0, i32 1
  %6 = load ptr, ptr %parent, align 8
  %tobool5 = icmp ne ptr %6, null
  br label %land.end

land.end:                                         ; preds = %land.rhs, %for.cond
  %7 = phi i1 [ false, %for.cond ], [ %tobool5, %land.rhs ]
  br i1 %7, label %for.body, label %for.end

for.body:                                         ; preds = %land.end
  %8 = load ptr, ptr %root, align 8
  %parent6 = getelementptr inbounds %struct.btDbvtNode, ptr %8, i32 0, i32 1
  %9 = load ptr, ptr %parent6, align 8
  store ptr %9, ptr %root, align 8
  br label %for.inc

for.inc:                                          ; preds = %for.body
  %10 = load i32, ptr %i, align 4
  %inc = add nsw i32 %10, 1
  store i32 %inc, ptr %i, align 4
  br label %for.cond, !llvm.loop !19

for.end:                                          ; preds = %land.end
  br label %if.end

if.else:                                          ; preds = %if.then
  %m_root = getelementptr inbounds %struct.btDbvt, ptr %this1, i32 0, i32 0
  %11 = load ptr, ptr %m_root, align 8
  store ptr %11, ptr %root, align 8
  br label %if.end

if.end:                                           ; preds = %if.else, %for.end
  br label %if.end7

if.end7:                                          ; preds = %if.end, %entry
  %12 = load ptr, ptr %volume.addr, align 8
  %13 = load ptr, ptr %leaf.addr, align 8
  %volume8 = getelementptr inbounds %struct.btDbvtNode, ptr %13, i32 0, i32 0
  call void @llvm.memcpy.p0.p0.i64(ptr align 8 %volume8, ptr align 4 %12, i64 32, i1 false)
  %14 = load ptr, ptr %root, align 8
  %15 = load ptr, ptr %leaf.addr, align 8
  call void @_ZL10insertleafP6btDbvtP10btDbvtNodeS2_(ptr noundef %this1, ptr noundef %14, ptr noundef %15)
  ret void
}

; Function Attrs: mustprogress uwtable
define linkonce_odr dso_local void @_ZN12btDbvtAabbMm6ExpandERK9btVector3(ptr noundef nonnull align 4 dereferenceable(32) %this, ptr noundef nonnull align 4 dereferenceable(16) %e) #2 comdat align 2 {
entry:
  %this.addr = alloca ptr, align 8
  %e.addr = alloca ptr, align 8
  store ptr %this, ptr %this.addr, align 8
  store ptr %e, ptr %e.addr, align 8
  %this1 = load ptr, ptr %this.addr, align 8
  %0 = load ptr, ptr %e.addr, align 8
  %mi = getelementptr inbounds %struct.btDbvtAabbMm, ptr %this1, i32 0, i32 0
  %call = call noundef nonnull align 4 dereferenceable(16) ptr @_ZN9btVector3mIERKS_(ptr noundef nonnull align 4 dereferenceable(16) %mi, ptr noundef nonnull align 4 dereferenceable(16) %0)
  %1 = load ptr, ptr %e.addr, align 8
  %mx = getelementptr inbounds %struct.btDbvtAabbMm, ptr %this1, i32 0, i32 1
  %call2 = call noundef nonnull align 4 dereferenceable(16) ptr @_ZN9btVector3pLERKS_(ptr noundef nonnull align 4 dereferenceable(16) %mx, ptr noundef nonnull align 4 dereferenceable(16) %1)
  ret void
}

; Function Attrs: mustprogress nounwind uwtable
define linkonce_odr dso_local void @_ZN9btVector3C2ERKfS1_S1_(ptr noundef nonnull align 4 dereferenceable(16) %this, ptr noundef nonnull align 4 dereferenceable(4) %_x, ptr noundef nonnull align 4 dereferenceable(4) %_y, ptr noundef nonnull align 4 dereferenceable(4) %_z) unnamed_addr #1 comdat align 2 {
entry:
  %this.addr = alloca ptr, align 8
  %_x.addr = alloca ptr, align 8
  %_y.addr = alloca ptr, align 8
  %_z.addr = alloca ptr, align 8
  store ptr %this, ptr %this.addr, align 8
  store ptr %_x, ptr %_x.addr, align 8
  store ptr %_y, ptr %_y.addr, align 8
  store ptr %_z, ptr %_z.addr, align 8
  %this1 = load ptr, ptr %this.addr, align 8
  %0 = load ptr, ptr %_x.addr, align 8
  %1 = load float, ptr %0, align 4
  %m_floats = getelementptr inbounds %class.btVector3, ptr %this1, i32 0, i32 0
  %arrayidx = getelementptr inbounds [4 x float], ptr %m_floats, i64 0, i64 0
  store float %1, ptr %arrayidx, align 4
  %2 = load ptr, ptr %_y.addr, align 8
  %3 = load float, ptr %2, align 4
  %m_floats2 = getelementptr inbounds %class.btVector3, ptr %this1, i32 0, i32 0
  %arrayidx3 = getelementptr inbounds [4 x float], ptr %m_floats2, i64 0, i64 1
  store float %3, ptr %arrayidx3, align 4
  %4 = load ptr, ptr %_z.addr, align 8
  %5 = load float, ptr %4, align 4
  %m_floats4 = getelementptr inbounds %class.btVector3, ptr %this1, i32 0, i32 0
  %arrayidx5 = getelementptr inbounds [4 x float], ptr %m_floats4, i64 0, i64 2
  store float %5, ptr %arrayidx5, align 4
  %m_floats6 = getelementptr inbounds %class.btVector3, ptr %this1, i32 0, i32 0
  %arrayidx7 = getelementptr inbounds [4 x float], ptr %m_floats6, i64 0, i64 3
  store float 0.000000e+00, ptr %arrayidx7, align 4
  ret void
}

; Function Attrs: mustprogress nounwind uwtable
define linkonce_odr dso_local noundef zeroext i1 @_ZNK12btDbvtAabbMm7ContainERKS_(ptr noundef nonnull align 4 dereferenceable(32) %this, ptr noundef nonnull align 4 dereferenceable(32) %a) #1 comdat align 2 {
entry:
  %this.addr = alloca ptr, align 8
  %a.addr = alloca ptr, align 8
  store ptr %this, ptr %this.addr, align 8
  store ptr %a, ptr %a.addr, align 8
  %this1 = load ptr, ptr %this.addr, align 8
  %mi = getelementptr inbounds %struct.btDbvtAabbMm, ptr %this1, i32 0, i32 0
  %call = call noundef nonnull align 4 dereferenceable(4) ptr @_ZNK9btVector31xEv(ptr noundef nonnull align 4 dereferenceable(16) %mi)
  %0 = load float, ptr %call, align 4
  %1 = load ptr, ptr %a.addr, align 8
  %mi2 = getelementptr inbounds %struct.btDbvtAabbMm, ptr %1, i32 0, i32 0
  %call3 = call noundef nonnull align 4 dereferenceable(4) ptr @_ZNK9btVector31xEv(ptr noundef nonnull align 4 dereferenceable(16) %mi2)
  %2 = load float, ptr %call3, align 4
  %cmp = fcmp ole float %0, %2
  br i1 %cmp, label %land.lhs.true, label %land.end

land.lhs.true:                                    ; preds = %entry
  %mi4 = getelementptr inbounds %struct.btDbvtAabbMm, ptr %this1, i32 0, i32 0
  %call5 = call noundef nonnull align 4 dereferenceable(4) ptr @_ZNK9btVector31yEv(ptr noundef nonnull align 4 dereferenceable(16) %mi4)
  %3 = load float, ptr %call5, align 4
  %4 = load ptr, ptr %a.addr, align 8
  %mi6 = getelementptr inbounds %struct.btDbvtAabbMm, ptr %4, i32 0, i32 0
  %call7 = call noundef nonnull align 4 dereferenceable(4) ptr @_ZNK9btVector31yEv(ptr noundef nonnull align 4 dereferenceable(16) %mi6)
  %5 = load float, ptr %call7, align 4
  %cmp8 = fcmp ole float %3, %5
  br i1 %cmp8, label %land.lhs.true9, label %land.end

land.lhs.true9:                                   ; preds = %land.lhs.true
  %mi10 = getelementptr inbounds %struct.btDbvtAabbMm, ptr %this1, i32 0, i32 0
  %call11 = call noundef nonnull align 4 dereferenceable(4) ptr @_ZNK9btVector31zEv(ptr noundef nonnull align 4 dereferenceable(16) %mi10)
  %6 = load float, ptr %call11, align 4
  %7 = load ptr, ptr %a.addr, align 8
  %mi12 = getelementptr inbounds %struct.btDbvtAabbMm, ptr %7, i32 0, i32 0
  %call13 = call noundef nonnull align 4 dereferenceable(4) ptr @_ZNK9btVector31zEv(ptr noundef nonnull align 4 dereferenceable(16) %mi12)
  %8 = load float, ptr %call13, align 4
  %cmp14 = fcmp ole float %6, %8
  br i1 %cmp14, label %land.lhs.true15, label %land.end

land.lhs.true15:                                  ; preds = %land.lhs.true9
  %mx = getelementptr inbounds %struct.btDbvtAabbMm, ptr %this1, i32 0, i32 1
  %call16 = call noundef nonnull align 4 dereferenceable(4) ptr @_ZNK9btVector31xEv(ptr noundef nonnull align 4 dereferenceable(16) %mx)
  %9 = load float, ptr %call16, align 4
  %10 = load ptr, ptr %a.addr, align 8
  %mx17 = getelementptr inbounds %struct.btDbvtAabbMm, ptr %10, i32 0, i32 1
  %call18 = call noundef nonnull align 4 dereferenceable(4) ptr @_ZNK9btVector31xEv(ptr noundef nonnull align 4 dereferenceable(16) %mx17)
  %11 = load float, ptr %call18, align 4
  %cmp19 = fcmp oge float %9, %11
  br i1 %cmp19, label %land.lhs.true20, label %land.end

land.lhs.true20:                                  ; preds = %land.lhs.true15
  %mx21 = getelementptr inbounds %struct.btDbvtAabbMm, ptr %this1, i32 0, i32 1
  %call22 = call noundef nonnull align 4 dereferenceable(4) ptr @_ZNK9btVector31yEv(ptr noundef nonnull align 4 dereferenceable(16) %mx21)
  %12 = load float, ptr %call22, align 4
  %13 = load ptr, ptr %a.addr, align 8
  %mx23 = getelementptr inbounds %struct.btDbvtAabbMm, ptr %13, i32 0, i32 1
  %call24 = call noundef nonnull align 4 dereferenceable(4) ptr @_ZNK9btVector31yEv(ptr noundef nonnull align 4 dereferenceable(16) %mx23)
  %14 = load float, ptr %call24, align 4
  %cmp25 = fcmp oge float %12, %14
  br i1 %cmp25, label %land.rhs, label %land.end

land.rhs:                                         ; preds = %land.lhs.true20
  %mx26 = getelementptr inbounds %struct.btDbvtAabbMm, ptr %this1, i32 0, i32 1
  %call27 = call noundef nonnull align 4 dereferenceable(4) ptr @_ZNK9btVector31zEv(ptr noundef nonnull align 4 dereferenceable(16) %mx26)
  %15 = load float, ptr %call27, align 4
  %16 = load ptr, ptr %a.addr, align 8
  %mx28 = getelementptr inbounds %struct.btDbvtAabbMm, ptr %16, i32 0, i32 1
  %call29 = call noundef nonnull align 4 dereferenceable(4) ptr @_ZNK9btVector31zEv(ptr noundef nonnull align 4 dereferenceable(16) %mx28)
  %17 = load float, ptr %call29, align 4
  %cmp30 = fcmp oge float %15, %17
  br label %land.end

land.end:                                         ; preds = %land.rhs, %land.lhs.true20, %land.lhs.true15, %land.lhs.true9, %land.lhs.true, %entry
  %18 = phi i1 [ false, %land.lhs.true20 ], [ false, %land.lhs.true15 ], [ false, %land.lhs.true9 ], [ false, %land.lhs.true ], [ false, %entry ], [ %cmp30, %land.rhs ]
  ret i1 %18
}

; Function Attrs: mustprogress uwtable
define dso_local noundef zeroext i1 @_ZN6btDbvt6updateEP10btDbvtNodeR12btDbvtAabbMmf(ptr noundef nonnull align 8 dereferenceable(64) %this, ptr noundef %leaf, ptr noundef nonnull align 4 dereferenceable(32) %volume, float noundef %margin) #2 align 2 {
entry:
  %retval = alloca i1, align 1
  %this.addr = alloca ptr, align 8
  %leaf.addr = alloca ptr, align 8
  %volume.addr = alloca ptr, align 8
  %margin.addr = alloca float, align 4
  %ref.tmp = alloca %class.btVector3, align 4
  store ptr %this, ptr %this.addr, align 8
  store ptr %leaf, ptr %leaf.addr, align 8
  store ptr %volume, ptr %volume.addr, align 8
  store float %margin, ptr %margin.addr, align 4
  %this1 = load ptr, ptr %this.addr, align 8
  %0 = load ptr, ptr %leaf.addr, align 8
  %volume2 = getelementptr inbounds %struct.btDbvtNode, ptr %0, i32 0, i32 0
  %1 = load ptr, ptr %volume.addr, align 8
  %call = call noundef zeroext i1 @_ZNK12btDbvtAabbMm7ContainERKS_(ptr noundef nonnull align 4 dereferenceable(32) %volume2, ptr noundef nonnull align 4 dereferenceable(32) %1)
  br i1 %call, label %if.then, label %if.end

if.then:                                          ; preds = %entry
  store i1 false, ptr %retval, align 1
  br label %return

if.end:                                           ; preds = %entry
  %2 = load ptr, ptr %volume.addr, align 8
  call void @_ZN9btVector3C2ERKfS1_S1_(ptr noundef nonnull align 4 dereferenceable(16) %ref.tmp, ptr noundef nonnull align 4 dereferenceable(4) %margin.addr, ptr noundef nonnull align 4 dereferenceable(4) %margin.addr, ptr noundef nonnull align 4 dereferenceable(4) %margin.addr)
  call void @_ZN12btDbvtAabbMm6ExpandERK9btVector3(ptr noundef nonnull align 4 dereferenceable(32) %2, ptr noundef nonnull align 4 dereferenceable(16) %ref.tmp)
  %3 = load ptr, ptr %leaf.addr, align 8
  %4 = load ptr, ptr %volume.addr, align 8
  call void @_ZN6btDbvt6updateEP10btDbvtNodeR12btDbvtAabbMm(ptr noundef nonnull align 8 dereferenceable(64) %this1, ptr noundef %3, ptr noundef nonnull align 4 dereferenceable(32) %4)
  store i1 true, ptr %retval, align 1
  br label %return

return:                                           ; preds = %if.end, %if.then
  %5 = load i1, ptr %retval, align 1
  ret i1 %5
}