; Function Attrs: mustprogress uwtable
define dso_local noundef zeroext i1 @_ZN6btDbvt6updateEP10btDbvtNodeR12btDbvtAabbMmf(ptr nocapture noundef nonnull align 8 dereferenceable(64) %this, ptr noundef %leaf, ptr nocapture noundef nonnull align 4 dereferenceable(32) %volume, float noundef %margin) local_unnamed_addr #2 align 2 {
entry:
  %0 = load float, ptr %leaf, align 4
  %1 = load float, ptr %volume, align 4
  %cmp.i = fcmp ugt float %0, %1
  br i1 %cmp.i, label %entry.if.end_crit_edge, label %land.lhs.true.i

entry.if.end_crit_edge:                           ; preds = %entry
  %arrayidx7.i.i.phi.trans.insert = getelementptr inbounds i8, ptr %volume, i64 4
  %.pre = load float, ptr %arrayidx7.i.i.phi.trans.insert, align 4
  br label %if.end

land.lhs.true.i:                                  ; preds = %entry
  %arrayidx.i.i = getelementptr inbounds i8, ptr %leaf, i64 4
  %2 = load float, ptr %arrayidx.i.i, align 4
  %arrayidx.i6.i = getelementptr inbounds i8, ptr %volume, i64 4
  %3 = load float, ptr %arrayidx.i6.i, align 4
  %cmp8.i = fcmp ugt float %2, %3
  br i1 %cmp8.i, label %if.end, label %land.lhs.true9.i

land.lhs.true9.i:                                 ; preds = %land.lhs.true.i
  %arrayidx.i7.i = getelementptr inbounds i8, ptr %leaf, i64 8
  %4 = load float, ptr %arrayidx.i7.i, align 4
  %arrayidx.i8.i = getelementptr inbounds i8, ptr %volume, i64 8
  %5 = load float, ptr %arrayidx.i8.i, align 4
  %cmp14.i = fcmp ugt float %4, %5
  br i1 %cmp14.i, label %if.end, label %land.lhs.true15.i

land.lhs.true15.i:                                ; preds = %land.lhs.true9.i
  %mx.i = getelementptr inbounds i8, ptr %leaf, i64 16
  %6 = load float, ptr %mx.i, align 4
  %mx17.i = getelementptr inbounds i8, ptr %volume, i64 16
  %7 = load float, ptr %mx17.i, align 4
  %cmp19.i = fcmp ult float %6, %7
  br i1 %cmp19.i, label %if.end, label %land.lhs.true20.i

land.lhs.true20.i:                                ; preds = %land.lhs.true15.i
  %arrayidx.i9.i = getelementptr inbounds i8, ptr %leaf, i64 20
  %8 = load float, ptr %arrayidx.i9.i, align 4
  %arrayidx.i10.i = getelementptr inbounds i8, ptr %volume, i64 20
  %9 = load float, ptr %arrayidx.i10.i, align 4
  %cmp25.i = fcmp ult float %8, %9
  br i1 %cmp25.i, label %if.end, label %_ZNK12btDbvtAabbMm7ContainERKS_.exit

_ZNK12btDbvtAabbMm7ContainERKS_.exit:             ; preds = %land.lhs.true20.i
  %arrayidx.i11.i = getelementptr inbounds i8, ptr %leaf, i64 24
  %10 = load float, ptr %arrayidx.i11.i, align 4
  %arrayidx.i12.i = getelementptr inbounds i8, ptr %volume, i64 24
  %11 = load float, ptr %arrayidx.i12.i, align 4
  %cmp30.i = fcmp ult float %10, %11
  br i1 %cmp30.i, label %if.end, label %return

if.end:                                           ; preds = %entry.if.end_crit_edge, %land.lhs.true.i, %land.lhs.true9.i, %land.lhs.true15.i, %land.lhs.true20.i, %_ZNK12btDbvtAabbMm7ContainERKS_.exit
  %12 = phi float [ %.pre, %entry.if.end_crit_edge ], [ %3, %land.lhs.true.i ], [ %3, %land.lhs.true9.i ], [ %3, %land.lhs.true15.i ], [ %3, %land.lhs.true20.i ], [ %3, %_ZNK12btDbvtAabbMm7ContainERKS_.exit ]
  %13 = insertelement <2 x float> poison, float %1, i64 0
  %14 = insertelement <2 x float> %13, float %12, i64 1
  %15 = insertelement <2 x float> poison, float %margin, i64 0
  %16 = shufflevector <2 x float> %15, <2 x float> poison, <2 x i32> zeroinitializer
  %17 = fsub <2 x float> %14, %16
  store <2 x float> %17, ptr %volume, align 4
  %arrayidx12.i.i = getelementptr inbounds i8, ptr %volume, i64 8
  %18 = load float, ptr %arrayidx12.i.i, align 4
  %sub13.i.i = fsub float %18, %margin
  store float %sub13.i.i, ptr %arrayidx12.i.i, align 4
  %mx.i4 = getelementptr inbounds i8, ptr %volume, i64 16
  %19 = load <2 x float>, ptr %mx.i4, align 4
  %20 = fadd <2 x float> %19, %16
  store <2 x float> %20, ptr %mx.i4, align 4
  %arrayidx12.i5.i = getelementptr inbounds i8, ptr %volume, i64 24
  %21 = load float, ptr %arrayidx12.i5.i, align 4
  %add13.i.i = fadd float %21, %margin
  store float %add13.i.i, ptr %arrayidx12.i5.i, align 4
  %call.i = tail call fastcc noundef ptr @_ZL10removeleafP6btDbvtP10btDbvtNode(ptr noundef nonnull %this, ptr noundef nonnull %leaf)
  %tobool.not.i = icmp eq ptr %call.i, null
  br i1 %tobool.not.i, label %_ZN6btDbvt6updateEP10btDbvtNodeR12btDbvtAabbMm.exit, label %if.then.i

if.then.i:                                        ; preds = %if.end
  %m_lkhd.i = getelementptr inbounds i8, ptr %this, i64 16
  %22 = load i32, ptr %m_lkhd.i, align 8
  %cmp.i5 = icmp sgt i32 %22, -1
  br i1 %cmp.i5, label %for.cond.preheader.i, label %if.else.i

for.cond.preheader.i:                             ; preds = %if.then.i
  %cmp47.not.i = icmp eq i32 %22, 0
  br i1 %cmp47.not.i, label %_ZN6btDbvt6updateEP10btDbvtNodeR12btDbvtAabbMm.exit, label %land.rhs.i6

for.cond.i:                                       ; preds = %land.rhs.i6
  %inc.i = add nuw nsw i32 %i.09.i, 1
  %exitcond.not.i = icmp eq i32 %inc.i, %22
  br i1 %exitcond.not.i, label %_ZN6btDbvt6updateEP10btDbvtNodeR12btDbvtAabbMm.exit, label %land.rhs.i6, !llvm.loop !31

land.rhs.i6:                                      ; preds = %for.cond.preheader.i, %for.cond.i
  %i.09.i = phi i32 [ %inc.i, %for.cond.i ], [ 0, %for.cond.preheader.i ]
  %root.08.i = phi ptr [ %23, %for.cond.i ], [ %call.i, %for.cond.preheader.i ]
  %parent.i = getelementptr inbounds i8, ptr %root.08.i, i64 32
  %23 = load ptr, ptr %parent.i, align 8
  %tobool5.not.i = icmp eq ptr %23, null
  br i1 %tobool5.not.i, label %_ZN6btDbvt6updateEP10btDbvtNodeR12btDbvtAabbMm.exit, label %for.cond.i

if.else.i:                                        ; preds = %if.then.i
  %24 = load ptr, ptr %this, align 8
  br label %_ZN6btDbvt6updateEP10btDbvtNodeR12btDbvtAabbMm.exit

_ZN6btDbvt6updateEP10btDbvtNodeR12btDbvtAabbMm.exit: ; preds = %for.cond.i, %land.rhs.i6, %if.end, %for.cond.preheader.i, %if.else.i
  %root.1.i = phi ptr [ %24, %if.else.i ], [ null, %if.end ], [ %call.i, %for.cond.preheader.i ], [ %23, %for.cond.i ], [ %root.08.i, %land.rhs.i6 ]
  tail call void @llvm.memcpy.p0.p0.i64(ptr noundef nonnull align 8 dereferenceable(32) %leaf, ptr noundef nonnull align 4 dereferenceable(32) %volume, i64 32, i1 false)
  tail call fastcc void @_ZL10insertleafP6btDbvtP10btDbvtNodeS2_(ptr noundef nonnull %this, ptr noundef %root.1.i, ptr noundef nonnull %leaf)
  br label %return

return:                                           ; preds = %_ZNK12btDbvtAabbMm7ContainERKS_.exit, %_ZN6btDbvt6updateEP10btDbvtNodeR12btDbvtAabbMm.exit
  %retval.0 = phi i1 [ false, %_ZNK12btDbvtAabbMm7ContainERKS_.exit ], [ true, %_ZN6btDbvt6updateEP10btDbvtNodeR12btDbvtAabbMm.exit ]
  ret i1 %retval.0
}